target datalayout = "e-m:e-p270:32:32-p271:32:32-p272:64:64-i64:64-i128:128-f80:128-n8:16:32:64-S128"
target triple = "x86_64-pc-linux-gnu"

@param_table = internal global ptr null, align 8

; Function Attrs: inlinehint nounwind uwtable
define internal ptr @ossl_check_X509_VERIFY_PARAM_type(ptr noundef %0) #3 {
  %2 = alloca ptr, align 8
  store ptr %0, ptr %2, align 8, !tbaa !3
  %3 = load ptr, ptr %2, align 8, !tbaa !3
  ret ptr %3
}

; Function Attrs: inlinehint nounwind uwtable
define internal ptr @ossl_check_X509_VERIFY_PARAM_sk_type(ptr noundef %0) #3 {
  %2 = alloca ptr, align 8
  store ptr %0, ptr %2, align 8, !tbaa !45
  %3 = load ptr, ptr %2, align 8, !tbaa !45
  ret ptr %3
}

; Function Attrs: inlinehint nounwind uwtable
define internal ptr @ossl_check_X509_VERIFY_PARAM_compfunc_type(ptr noundef %0) #3 {
  %2 = alloca ptr, align 8
  store ptr %0, ptr %2, align 8, !tbaa !23
  %3 = load ptr, ptr %2, align 8, !tbaa !23
  ret ptr %3
}

; Function Attrs: nounwind uwtable
define i32 @X509_VERIFY_PARAM_add0_table(ptr noundef %0) #0 {
  %2 = alloca i32, align 4
  %3 = alloca ptr, align 8
  %4 = alloca i32, align 4
  %5 = alloca ptr, align 8
  %6 = alloca i32, align 4
  store ptr %0, ptr %3, align 8, !tbaa !3
  call void @llvm.lifetime.start.p0(i64 4, ptr %4) #6
  call void @llvm.lifetime.start.p0(i64 8, ptr %5) #6
  %7 = load ptr, ptr @param_table, align 8, !tbaa !45
  %8 = icmp eq ptr %7, null
  br i1 %8, label %9, label %16

9:                                                ; preds = %1
  %10 = call ptr @ossl_check_X509_VERIFY_PARAM_compfunc_type(ptr noundef @param_cmp)
  %11 = call ptr @OPENSSL_sk_new(ptr noundef %10)
  store ptr %11, ptr @param_table, align 8, !tbaa !45
  %12 = load ptr, ptr @param_table, align 8, !tbaa !45
  %13 = icmp eq ptr %12, null
  br i1 %13, label %14, label %15

14:                                               ; preds = %9
  store i32 0, ptr %2, align 4
  store i32 1, ptr %6, align 4
  br label %40

15:                                               ; preds = %9
  br label %31

16:                                               ; preds = %1
  %17 = load ptr, ptr @param_table, align 8, !tbaa !45
  %18 = call ptr @ossl_check_X509_VERIFY_PARAM_sk_type(ptr noundef %17)
  %19 = load ptr, ptr %3, align 8, !tbaa !3
  %20 = call ptr @ossl_check_X509_VERIFY_PARAM_type(ptr noundef %19)
  %21 = call i32 @OPENSSL_sk_find(ptr noundef %18, ptr noundef %20)
  store i32 %21, ptr %4, align 4, !tbaa !28
  %22 = load i32, ptr %4, align 4, !tbaa !28
  %23 = icmp sge i32 %22, 0
  br i1 %23, label %24, label %30

24:                                               ; preds = %16
  %25 = load ptr, ptr @param_table, align 8, !tbaa !45
  %26 = call ptr @ossl_check_X509_VERIFY_PARAM_sk_type(ptr noundef %25)
  %27 = load i32, ptr %4, align 4, !tbaa !28
  %28 = call ptr @OPENSSL_sk_delete(ptr noundef %26, i32 noundef %27)
  store ptr %28, ptr %5, align 8, !tbaa !3
  %29 = load ptr, ptr %5, align 8, !tbaa !3
  call void @X509_VERIFY_PARAM_free(ptr noundef %29)
  br label %30

30:                                               ; preds = %24, %16
  br label %31

31:                                               ; preds = %30, %15
  %32 = load ptr, ptr @param_table, align 8, !tbaa !45
  %33 = call ptr @ossl_check_X509_VERIFY_PARAM_sk_type(ptr noundef %32)
  %34 = load ptr, ptr %3, align 8, !tbaa !3
  %35 = call ptr @ossl_check_X509_VERIFY_PARAM_type(ptr noundef %34)
  %36 = call i32 @OPENSSL_sk_push(ptr noundef %33, ptr noundef %35)
  %37 = icmp sle i32 %36, 0
  br i1 %37, label %38, label %39

38:                                               ; preds = %31
  store i32 0, ptr %2, align 4
  store i32 1, ptr %6, align 4
  br label %40

39:                                               ; preds = %31
  store i32 1, ptr %2, align 4
  store i32 1, ptr %6, align 4
  br label %40

40:                                               ; preds = %39, %38, %14
  call void @llvm.lifetime.end.p0(i64 8, ptr %5) #6
  call void @llvm.lifetime.end.p0(i64 4, ptr %4) #6
  %41 = load i32, ptr %2, align 4
  ret i32 %41
}