; Function Attrs: nounwind uwtable
define range(i32 0, 2) i32 @X509_VERIFY_PARAM_add0_table(ptr noundef %0) local_unnamed_addr #0 {
  %2 = load ptr, ptr @param_table, align 8, !tbaa !33
  %3 = icmp eq ptr %2, null
  br i1 %3, label %4, label %7

4:                                                ; preds = %1
  %5 = tail call ptr @OPENSSL_sk_new(ptr noundef nonnull @param_cmp) #9
  store ptr %5, ptr @param_table, align 8, !tbaa !33
  %6 = icmp eq ptr %5, null
  br i1 %6, label %16, label %12

7:                                                ; preds = %1
  %8 = tail call i32 @OPENSSL_sk_find(ptr noundef nonnull %2, ptr noundef %0) #9
  %9 = icmp sgt i32 %8, -1
  %.pre7 = load ptr, ptr @param_table, align 8, !tbaa !33
  br i1 %9, label %10, label %12

10:                                               ; preds = %7
  %11 = tail call ptr @OPENSSL_sk_delete(ptr noundef %.pre7, i32 noundef %8) #9
  tail call void @X509_VERIFY_PARAM_free(ptr noundef %11)
  %.pre = load ptr, ptr @param_table, align 8, !tbaa !33
  br label %12

12:                                               ; preds = %7, %10, %4
  %13 = phi ptr [ %.pre7, %7 ], [ %.pre, %10 ], [ %5, %4 ]
  %14 = tail call i32 @OPENSSL_sk_push(ptr noundef %13, ptr noundef %0) #9
  %15 = icmp sgt i32 %14, 0
  %. = zext i1 %15 to i32
  br label %16

16:                                               ; preds = %12, %4
  %.0 = phi i32 [ 0, %4 ], [ %., %12 ]
  ret i32 %.0
}